Certificate:
    Data:
        Version: 3 (0x2)
        Serial Number: 1 (0x1)
    Signature Algorithm: sha256WithRSAEncryption
        Issuer: CN=hss.openair4G.eur, C=FR, ST=PACA, L=Aix, O=Eurecom, OU=CM
        Validity
            Not Before: Mar  4 14:17:27 2019 GMT
            Not After : Mar  3 14:17:27 2020 GMT
        Subject: C=FR, ST=PACA, O=Eurecom, OU=CM, CN=hss.openair4G.eur
        Subject Public Key Info:
            Public Key Algorithm: rsaEncryption
                Public-Key: (1024 bit)
                Modulus:
                    00:c4:3c:f9:09:f0:59:9c:63:b9:f3:d5:d9:b2:32:
                    13:55:40:32:0c:69:00:c2:e9:23:94:b8:fc:33:94:
                    0f:9c:40:58:24:05:8c:66:87:19:ae:87:bc:de:cb:
                    61:bf:f6:c4:6d:04:b2:81:0a:7e:03:fd:3e:6a:58:
                    9f:c1:45:ee:10:3b:3c:e8:e3:1f:a2:cc:f5:1a:51:
                    42:d0:e2:78:5a:8b:48:38:48:e6:ba:1e:ae:7a:f4:
                    17:20:1e:34:40:4f:68:67:6c:e5:f0:06:b6:ab:67:
                    41:c4:ad:fe:1a:bf:fd:36:52:d1:ad:ae:0d:8d:b2:
                    5b:9f:8c:69:f1:90:32:7d:9d
                Exponent: 65537 (0x10001)
        X509v3 extensions:
            X509v3 Basic Constraints: 
                CA:FALSE
            Netscape Comment: 
                OpenSSL Generated Certificate
            X509v3 Subject Key Identifier: 
                C2:4E:46:BF:AD:C9:A1:E5:6D:78:B5:20:D4:0D:8E:C6:24:C3:D7:27
            X509v3 Authority Key Identifier: 
                keyid:89:CD:E3:2C:99:90:2F:8C:5D:0C:B5:F6:7A:BB:2A:15:9F:C6:D7:A2

    Signature Algorithm: sha256WithRSAEncryption
         a4:83:4d:89:f0:53:cd:7c:95:66:ee:95:99:51:76:ec:a1:72:
         bb:62:a3:51:e5:a4:de:ea:d9:5e:e1:96:7e:26:ab:01:90:4a:
         dc:49:96:54:7a:cc:90:ce:be:3d:a1:a6:cd:e9:e9:cd:48:41:
         0f:39:ae:ac:55:0c:38:49:a7:1f:53:02:bc:46:a3:d6:ba:f3:
         a9:78:76:f9:f9:d4:22:30:0f:27:5c:9a:69:97:3a:4f:8b:78:
         58:6d:ff:86:00:38:12:31:59:c9:01:d2:92:aa:60:cd:11:6c:
         43:c0:19:c4:92:e3:ce:3d:20:9b:14:d6:56:3b:13:42:5d:4a:
         bd:b4
-----BEGIN CERTIFICATE-----
MIICrTCCAhagAwIBAgIBATANBgkqhkiG9w0BAQsFADBlMRowGAYDVQQDDBFoc3Mu
b3BlbmFpcjRHLmV1cjELMAkGA1UEBhMCRlIxDTALBgNVBAgMBFBBQ0ExDDAKBgNV
BAcMA0FpeDEQMA4GA1UECgwHRXVyZWNvbTELMAkGA1UECwwCQ00wHhcNMTkwMzA0
MTQxNzI3WhcNMjAwMzAzMTQxNzI3WjBXMQswCQYDVQQGEwJGUjENMAsGA1UECAwE
UEFDQTEQMA4GA1UECgwHRXVyZWNvbTELMAkGA1UECwwCQ00xGjAYBgNVBAMMEWhz
cy5vcGVuYWlyNEcuZXVyMIGfMA0GCSqGSIb3DQEBAQUAA4GNADCBiQKBgQDEPPkJ
8FmcY7nz1dmyMhNVQDIMaQDC6SOUuPwzlA+cQFgkBYxmhxmuh7zey2G/9sRtBLKB
Cn4D/T5qWJ/BRe4QOzzo4x+izPUaUULQ4nhai0g4SOa6Hq569BcgHjRAT2hnbOXw
BrarZ0HErf4av/02UtGtrg2NslufjGnxkDJ9nQIDAQABo3sweTAJBgNVHRMEAjAA
MCwGCWCGSAGG+EIBDQQfFh1PcGVuU1NMIEdlbmVyYXRlZCBDZXJ0aWZpY2F0ZTAd
BgNVHQ4EFgQUwk5Gv63JoeVteLUg1A2OxiTD1ycwHwYDVR0jBBgwFoAUic3jLJmQ
L4xdDLX2ersqFZ/G16IwDQYJKoZIhvcNAQELBQADgYEApINNifBTzXyVZu6VmVF2
7KFyu2KjUeWk3urZXuGWfiarAZBK3EmWVHrMkM6+PaGmzenpzUhBDzmurFUMOEmn
H1MCvEaj1rrzqXh2+fnUIjAPJ1yaaZc6T4t4WG3/hgA4EjFZyQHSkqpgzRFsQ8AZ
xJLjzj0gmxTWVjsTQl1KvbQ=
-----END CERTIFICATE-----
