Certificate:
    Data:
        Version: 3 (0x2)
        Serial Number: 1 (0x1)
    Signature Algorithm: sha256WithRSAEncryption
        Issuer: CN=mari-desktop.openair4G.eur, C=FR, ST=PACA, L=Aix, O=Eurecom, OU=CM
        Validity
            Not Before: Mar  4 14:17:47 2019 GMT
            Not After : Mar  3 14:17:47 2020 GMT
        Subject: C=FR, ST=PACA, O=Eurecom, OU=CM, CN=mari-desktop.openair4G.eur
        Subject Public Key Info:
            Public Key Algorithm: rsaEncryption
                Public-Key: (1024 bit)
                Modulus:
                    00:e7:c8:d6:d0:ff:d1:d5:7f:23:24:f5:b8:70:48:
                    7a:76:56:6e:4b:87:b1:99:4c:0b:ad:e5:c5:00:20:
                    19:7a:55:c4:86:c2:48:67:19:6a:fa:31:36:f3:d8:
                    34:f8:99:4e:44:16:53:a2:3c:31:28:f0:04:dc:a6:
                    86:cd:5e:a8:b6:d1:34:5c:ad:23:38:db:83:c4:6a:
                    37:a6:60:f1:28:6e:98:d2:70:7c:cc:23:25:b1:7b:
                    15:83:2a:46:80:80:93:03:58:0e:57:1f:1b:ec:a3:
                    4f:a6:f4:f2:92:16:d2:ae:98:58:ab:d6:fc:c6:b3:
                    22:71:1c:de:e7:d3:81:0e:5b
                Exponent: 65537 (0x10001)
        X509v3 extensions:
            X509v3 Basic Constraints: 
                CA:FALSE
            Netscape Comment: 
                OpenSSL Generated Certificate
            X509v3 Subject Key Identifier: 
                86:3E:D2:6B:5A:A0:EE:8C:5C:AF:AF:D9:47:DD:65:73:2E:4E:7B:9F
            X509v3 Authority Key Identifier: 
                keyid:A3:2E:D9:2E:5F:96:34:75:09:D8:6A:00:52:06:C3:A6:89:EF:D6:EE

    Signature Algorithm: sha256WithRSAEncryption
         2a:01:66:f4:4e:4b:77:79:68:82:5e:fa:95:bb:fd:f9:35:93:
         d2:99:48:dd:31:08:2e:23:e5:1c:c5:2c:d9:0a:44:3b:dc:87:
         b3:bd:39:e9:6c:44:ad:55:9d:81:f8:84:23:6c:28:de:7a:fc:
         01:c0:ab:41:c2:ec:3d:b6:1c:1d:9e:85:f1:56:79:5c:74:78:
         d1:a0:ab:e2:b5:32:67:f2:e2:25:69:0c:05:b8:65:fb:ba:ee:
         fc:c1:5b:eb:77:2e:5c:c7:d8:20:de:8e:f5:50:8f:f8:1d:90:
         10:23:06:2e:55:9d:01:a5:4e:4c:27:e3:b3:e5:84:7a:3c:87:
         98:49
-----BEGIN CERTIFICATE-----
MIICvzCCAiigAwIBAgIBATANBgkqhkiG9w0BAQsFADBuMSMwIQYDVQQDDBptYXJp
LWRlc2t0b3Aub3BlbmFpcjRHLmV1cjELMAkGA1UEBhMCRlIxDTALBgNVBAgMBFBB
Q0ExDDAKBgNVBAcMA0FpeDEQMA4GA1UECgwHRXVyZWNvbTELMAkGA1UECwwCQ00w
HhcNMTkwMzA0MTQxNzQ3WhcNMjAwMzAzMTQxNzQ3WjBgMQswCQYDVQQGEwJGUjEN
MAsGA1UECAwEUEFDQTEQMA4GA1UECgwHRXVyZWNvbTELMAkGA1UECwwCQ00xIzAh
BgNVBAMMGm1hcmktZGVza3RvcC5vcGVuYWlyNEcuZXVyMIGfMA0GCSqGSIb3DQEB
AQUAA4GNADCBiQKBgQDnyNbQ/9HVfyMk9bhwSHp2Vm5Lh7GZTAut5cUAIBl6VcSG
wkhnGWr6MTbz2DT4mU5EFlOiPDEo8ATcpobNXqi20TRcrSM424PEajemYPEobpjS
cHzMIyWxexWDKkaAgJMDWA5XHxvso0+m9PKSFtKumFir1vzGsyJxHN7n04EOWwID
AQABo3sweTAJBgNVHRMEAjAAMCwGCWCGSAGG+EIBDQQfFh1PcGVuU1NMIEdlbmVy
YXRlZCBDZXJ0aWZpY2F0ZTAdBgNVHQ4EFgQUhj7Sa1qg7oxcr6/ZR91lcy5Oe58w
HwYDVR0jBBgwFoAUoy7ZLl+WNHUJ2GoAUgbDponv1u4wDQYJKoZIhvcNAQELBQAD
gYEAKgFm9E5Ld3logl76lbv9+TWT0plI3TEILiPlHMUs2QpEO9yHs7056WxErVWd
gfiEI2wo3nr8AcCrQcLsPbYcHZ6F8VZ5XHR40aCr4rUyZ/LiJWkMBbhl+7ru/MFb
63cuXMfYIN6O9VCP+B2QECMGLlWdAaVOTCfjs+WEejyHmEk=
-----END CERTIFICATE-----
