Certificate:
    Data:
        Version: 3 (0x2)
        Serial Number: 1 (0x1)
    Signature Algorithm: sha256WithRSAEncryption
        Issuer: CN=hss.openair4G.eur, C=FR, ST=PACA, L=Aix, O=Eurecom, OU=CM
        Validity
            Not Before: Apr 18 16:59:08 2019 GMT
            Not After : Apr 17 16:59:08 2020 GMT
        Subject: C=FR, ST=PACA, O=Eurecom, OU=CM, CN=hss.openair4G.eur
        Subject Public Key Info:
            Public Key Algorithm: rsaEncryption
                Public-Key: (1024 bit)
                Modulus:
                    00:d3:9f:44:db:0c:a8:78:e2:a3:fc:b1:37:03:16:
                    19:08:73:51:fd:1b:f8:53:77:f6:ff:b3:d1:37:d9:
                    81:1a:3b:66:3c:de:48:9e:0f:e9:cb:df:d1:9b:ad:
                    2c:f3:47:11:c9:f0:2f:a3:39:c1:fc:c3:f7:8e:0f:
                    37:f5:81:eb:75:bc:09:23:02:c2:de:07:2c:b6:90:
                    61:0c:f8:4e:05:79:bc:10:b8:c9:0f:b1:19:d3:57:
                    c2:73:88:fd:5b:b1:b6:8a:c3:e7:a2:72:bb:2c:ab:
                    2d:50:5d:5e:57:87:f0:55:28:25:c5:41:56:83:3d:
                    95:c7:70:9c:d7:53:f6:00:ef
                Exponent: 65537 (0x10001)
        X509v3 extensions:
            X509v3 Basic Constraints: 
                CA:FALSE
            Netscape Comment: 
                OpenSSL Generated Certificate
            X509v3 Subject Key Identifier: 
                A5:7E:C6:AB:1F:B8:7C:69:5E:E0:6D:7F:2F:1E:3D:61:A4:EC:61:84
            X509v3 Authority Key Identifier: 
                keyid:FE:F1:F3:47:92:83:65:06:75:6F:61:E9:B7:4D:DC:E0:10:5B:A1:0D

    Signature Algorithm: sha256WithRSAEncryption
         31:bd:1c:5e:18:3e:37:42:f8:d4:fc:e4:10:47:e2:38:44:df:
         f7:02:29:bd:f1:05:aa:4d:60:2b:6c:43:83:59:9d:49:d8:6d:
         09:2c:97:6d:93:a8:84:d8:58:03:78:34:2d:5b:ea:d8:d5:03:
         16:d5:58:f0:13:7b:ea:18:93:96:d9:8c:1a:99:3e:80:13:ab:
         a5:57:9d:32:b7:21:d4:cf:5d:92:ef:0e:f0:a4:b1:a3:cf:d9:
         21:a4:1c:1d:c8:46:40:e3:b9:ff:5b:7c:17:ba:cb:10:60:a1:
         3b:4c:b2:9d:0e:66:bd:5b:b7:dc:6a:2a:32:6e:c8:47:31:6c:
         cf:a7
-----BEGIN CERTIFICATE-----
MIICrTCCAhagAwIBAgIBATANBgkqhkiG9w0BAQsFADBlMRowGAYDVQQDDBFoc3Mu
b3BlbmFpcjRHLmV1cjELMAkGA1UEBhMCRlIxDTALBgNVBAgMBFBBQ0ExDDAKBgNV
BAcMA0FpeDEQMA4GA1UECgwHRXVyZWNvbTELMAkGA1UECwwCQ00wHhcNMTkwNDE4
MTY1OTA4WhcNMjAwNDE3MTY1OTA4WjBXMQswCQYDVQQGEwJGUjENMAsGA1UECAwE
UEFDQTEQMA4GA1UECgwHRXVyZWNvbTELMAkGA1UECwwCQ00xGjAYBgNVBAMMEWhz
cy5vcGVuYWlyNEcuZXVyMIGfMA0GCSqGSIb3DQEBAQUAA4GNADCBiQKBgQDTn0Tb
DKh44qP8sTcDFhkIc1H9G/hTd/b/s9E32YEaO2Y83kieD+nL39GbrSzzRxHJ8C+j
OcH8w/eODzf1get1vAkjAsLeByy2kGEM+E4FebwQuMkPsRnTV8JziP1bsbaKw+ei
crssqy1QXV5Xh/BVKCXFQVaDPZXHcJzXU/YA7wIDAQABo3sweTAJBgNVHRMEAjAA
MCwGCWCGSAGG+EIBDQQfFh1PcGVuU1NMIEdlbmVyYXRlZCBDZXJ0aWZpY2F0ZTAd
BgNVHQ4EFgQUpX7Gqx+4fGle4G1/Lx49YaTsYYQwHwYDVR0jBBgwFoAU/vHzR5KD
ZQZ1b2Hpt03c4BBboQ0wDQYJKoZIhvcNAQELBQADgYEAMb0cXhg+N0L41PzkEEfi
OETf9wIpvfEFqk1gK2xDg1mdSdhtCSyXbZOohNhYA3g0LVvq2NUDFtVY8BN76hiT
ltmMGpk+gBOrpVedMrch1M9dku8O8KSxo8/ZIaQcHchGQOO5/1t8F7rLEGChO0yy
nQ5mvVu33GoqMm7IRzFsz6c=
-----END CERTIFICATE-----
