Certificate:
    Data:
        Version: 3 (0x2)
        Serial Number: 1 (0x1)
    Signature Algorithm: sha256WithRSAEncryption
        Issuer: CN=cn.openair4G.eur, C=FR, ST=PACA, L=Aix, O=Eurecom, OU=CM
        Validity
            Not Before: Apr 18 16:59:40 2019 GMT
            Not After : Apr 17 16:59:40 2020 GMT
        Subject: C=FR, ST=PACA, O=Eurecom, OU=CM, CN=cn.openair4G.eur
        Subject Public Key Info:
            Public Key Algorithm: rsaEncryption
                Public-Key: (1024 bit)
                Modulus:
                    00:c7:02:bf:4a:f5:84:7d:73:7a:e5:98:90:df:d9:
                    88:d4:d2:ec:2c:09:64:03:d7:1b:28:66:e0:75:3a:
                    97:55:85:df:24:54:d0:0b:5d:87:74:b1:f2:08:4a:
                    9d:6b:13:ad:97:56:c1:7a:dc:2e:81:59:b2:fc:4b:
                    5d:0f:2f:3c:a1:77:14:5a:47:37:12:45:00:d7:b8:
                    d8:94:b1:15:c9:53:84:4d:86:f4:48:69:e7:7e:2b:
                    fe:b7:28:ec:fd:bc:8b:73:0b:03:50:fb:91:46:1a:
                    26:d8:64:00:83:57:db:9e:2b:61:e1:58:84:c2:55:
                    a8:82:a5:62:a7:e7:1b:dd:ef
                Exponent: 65537 (0x10001)
        X509v3 extensions:
            X509v3 Basic Constraints: 
                CA:FALSE
            Netscape Comment: 
                OpenSSL Generated Certificate
            X509v3 Subject Key Identifier: 
                F6:F0:A7:A3:B0:52:31:3D:15:77:FD:87:60:6D:35:AD:72:BD:E3:64
            X509v3 Authority Key Identifier: 
                keyid:31:BE:09:43:21:E6:9C:12:B4:CE:14:84:FF:92:88:69:00:87:F4:B1

    Signature Algorithm: sha256WithRSAEncryption
         4e:8c:a4:17:e6:4a:4a:a1:f5:e5:23:b0:6c:8a:6d:2f:f1:a8:
         86:ba:32:e6:a4:f1:1c:91:83:de:f0:2d:1d:99:55:3b:6c:c0:
         89:4c:29:4a:d8:31:d1:e7:c5:5e:2d:46:bc:c0:6e:d5:d6:f6:
         b8:a3:18:7f:a0:c2:78:b2:54:36:a3:84:2a:87:d2:c1:d6:af:
         e6:bd:94:dc:74:5d:2a:0f:e3:10:c4:75:87:db:48:3e:be:d3:
         a3:1f:44:c7:c0:25:e5:ef:a4:7f:33:28:20:6d:d1:2f:84:77:
         d0:a6:06:68:c1:12:63:19:65:bb:12:43:43:46:f6:56:c1:9f:
         45:6c
-----BEGIN CERTIFICATE-----
MIICqzCCAhSgAwIBAgIBATANBgkqhkiG9w0BAQsFADBkMRkwFwYDVQQDDBBjbi5v
cGVuYWlyNEcuZXVyMQswCQYDVQQGEwJGUjENMAsGA1UECAwEUEFDQTEMMAoGA1UE
BwwDQWl4MRAwDgYDVQQKDAdFdXJlY29tMQswCQYDVQQLDAJDTTAeFw0xOTA0MTgx
NjU5NDBaFw0yMDA0MTcxNjU5NDBaMFYxCzAJBgNVBAYTAkZSMQ0wCwYDVQQIDARQ
QUNBMRAwDgYDVQQKDAdFdXJlY29tMQswCQYDVQQLDAJDTTEZMBcGA1UEAwwQY24u
b3BlbmFpcjRHLmV1cjCBnzANBgkqhkiG9w0BAQEFAAOBjQAwgYkCgYEAxwK/SvWE
fXN65ZiQ39mI1NLsLAlkA9cbKGbgdTqXVYXfJFTQC12HdLHyCEqdaxOtl1bBetwu
gVmy/EtdDy88oXcUWkc3EkUA17jYlLEVyVOETYb0SGnnfiv+tyjs/byLcwsDUPuR
Rhom2GQAg1fbnith4ViEwlWogqVip+cb3e8CAwEAAaN7MHkwCQYDVR0TBAIwADAs
BglghkgBhvhCAQ0EHxYdT3BlblNTTCBHZW5lcmF0ZWQgQ2VydGlmaWNhdGUwHQYD
VR0OBBYEFPbwp6OwUjE9FXf9h2BtNa1yveNkMB8GA1UdIwQYMBaAFDG+CUMh5pwS
tM4UhP+SiGkAh/SxMA0GCSqGSIb3DQEBCwUAA4GBAE6MpBfmSkqh9eUjsGyKbS/x
qIa6Muak8RyRg97wLR2ZVTtswIlMKUrYMdHnxV4tRrzAbtXW9rijGH+gwniyVDaj
hCqH0sHWr+a9lNx0XSoP4xDEdYfbSD6+06MfRMfAJeXvpH8zKCBt0S+Ed9CmBmjB
EmMZZbsSQ0NG9lbBn0Vs
-----END CERTIFICATE-----
